target datalayout = "e-m:e-p270:32:32-p271:32:32-p272:64:64-i64:64-i128:128-f80:128-n8:16:32:64-S128"
target triple = "x86_64-pc-linux-gnu"

%struct.expert_field = type { i32, i32 }

@hf_gsm_a_bssmap_cause_extension = internal global i32 0, align 4
@hf_gsm_a_bssmap_cause_class = internal global i32 0, align 4
@hf_gsm_a_bssmap_national_cause = internal global i32 0, align 4
@hf_gsm_a_bssmap_cause_value = internal global i32 0, align 4
@.str.93 = private unnamed_addr constant [20 x i8] c" - (National Cause)\00", align 1
@hf_gsm_a_bssmap_cause16 = internal global i32 0, align 4
@hf_gsm_a_bssmap_cause = internal global i32 0, align 4
@.str.94 = private unnamed_addr constant [11 x i8] c" - (%u) %s\00", align 1
@.str.95 = private unnamed_addr constant [8 x i8] c"Unknown\00", align 1
@ei_gsm_a_bssmap_extraneous_data = internal global %struct.expert_field zeroinitializer, align 4

; Function Attrs: null_pointer_is_valid sspstrong uwtable
define hidden zeroext i16 @bssmap_dissect_cause(ptr noundef %0, ptr noundef %1, ptr noundef %2, i32 noundef %3, i32 noundef %4, ptr noundef %5, i32 noundef %6) #1 {
  %8 = alloca ptr, align 8
  %9 = alloca ptr, align 8
  %10 = alloca ptr, align 8
  %11 = alloca i32, align 4
  %12 = alloca i32, align 4
  %13 = alloca ptr, align 8
  %14 = alloca i32, align 4
  %15 = alloca i8, align 1
  %16 = alloca i32, align 4
  store ptr %0, ptr %8, align 8
  store ptr %1, ptr %9, align 8
  store ptr %2, ptr %10, align 8
  store i32 %3, ptr %11, align 4
  store i32 %4, ptr %12, align 4
  store ptr %5, ptr %13, align 8
  store i32 %6, ptr %14, align 4
  call void @llvm.lifetime.start.p0(i64 1, ptr %15) #5
  call void @llvm.lifetime.start.p0(i64 4, ptr %16) #5
  %17 = load i32, ptr %11, align 4
  store i32 %17, ptr %16, align 4
  %18 = load ptr, ptr %8, align 8
  %19 = load i32, ptr %16, align 4
  %20 = call zeroext i8 @tvb_get_uint8(ptr noundef %18, i32 noundef %19)
  store i8 %20, ptr %15, align 1
  %21 = load ptr, ptr %9, align 8
  %22 = load i32, ptr @hf_gsm_a_bssmap_cause_extension, align 4
  %23 = load ptr, ptr %8, align 8
  %24 = load i32, ptr %16, align 4
  %25 = call ptr @proto_tree_add_item(ptr noundef %21, i32 noundef %22, ptr noundef %23, i32 noundef %24, i32 noundef 1, i32 noundef 0)
  %26 = load i8, ptr %15, align 1
  %27 = zext i8 %26 to i32
  %28 = and i32 %27, 128
  %29 = icmp ne i32 %28, 0
  br i1 %29, label %30, label %74

30:                                               ; preds = %7
  %31 = load i8, ptr %15, align 1
  %32 = zext i8 %31 to i32
  %33 = and i32 %32, 15
  %34 = icmp eq i32 %33, 0
  br i1 %34, label %35, label %65

35:                                               ; preds = %30
  %36 = load ptr, ptr %9, align 8
  %37 = load i32, ptr @hf_gsm_a_bssmap_cause_class, align 4
  %38 = load ptr, ptr %8, align 8
  %39 = load i32, ptr %16, align 4
  %40 = call ptr @proto_tree_add_item(ptr noundef %36, i32 noundef %37, ptr noundef %38, i32 noundef %39, i32 noundef 1, i32 noundef 0)
  %41 = load ptr, ptr %9, align 8
  %42 = load i32, ptr @hf_gsm_a_bssmap_national_cause, align 4
  %43 = load ptr, ptr %8, align 8
  %44 = load i32, ptr %16, align 4
  %45 = call ptr @proto_tree_add_item(ptr noundef %41, i32 noundef %42, ptr noundef %43, i32 noundef %44, i32 noundef 1, i32 noundef 0)
  %46 = load i32, ptr %16, align 4
  %47 = add i32 %46, 1
  store i32 %47, ptr %16, align 4
  %48 = load ptr, ptr %9, align 8
  %49 = load i32, ptr @hf_gsm_a_bssmap_cause_value, align 4
  %50 = load ptr, ptr %8, align 8
  %51 = load i32, ptr %16, align 4
  %52 = call ptr @proto_tree_add_item(ptr noundef %48, i32 noundef %49, ptr noundef %50, i32 noundef %51, i32 noundef 1, i32 noundef 0)
  %53 = load i32, ptr %16, align 4
  %54 = add i32 %53, 1
  store i32 %54, ptr %16, align 4
  %55 = load ptr, ptr %13, align 8
  %56 = icmp ne ptr %55, null
  br i1 %56, label %57, label %64

57:                                               ; preds = %35
  %58 = load ptr, ptr %13, align 8
  %59 = load i32, ptr %14, align 4
  %60 = sext i32 %59 to i64
  %61 = load ptr, ptr %13, align 8
  %62 = call i64 @llvm.objectsize.i64.p0(ptr %61, i1 false, i1 true, i1 true)
  %63 = call i32 (ptr, i64, i32, i64, ptr, ...) @__snprintf_chk(ptr noundef %58, i64 noundef %60, i32 noundef 2, i64 noundef %62, ptr noundef @.str.93)
  br label %64

64:                                               ; preds = %57, %35
  br label %73

65:                                               ; preds = %30
  %66 = load ptr, ptr %9, align 8
  %67 = load i32, ptr @hf_gsm_a_bssmap_cause16, align 4
  %68 = load ptr, ptr %8, align 8
  %69 = load i32, ptr %16, align 4
  %70 = call ptr @proto_tree_add_item(ptr noundef %66, i32 noundef %67, ptr noundef %68, i32 noundef %69, i32 noundef 2, i32 noundef 0)
  %71 = load i32, ptr %16, align 4
  %72 = add i32 %71, 2
  store i32 %72, ptr %16, align 4
  br label %73

73:                                               ; preds = %65, %64
  br label %99

74:                                               ; preds = %7
  %75 = load ptr, ptr %9, align 8
  %76 = load i32, ptr @hf_gsm_a_bssmap_cause, align 4
  %77 = load ptr, ptr %8, align 8
  %78 = load i32, ptr %16, align 4
  %79 = call ptr @proto_tree_add_item(ptr noundef %75, i32 noundef %76, ptr noundef %77, i32 noundef %78, i32 noundef 1, i32 noundef 0)
  %80 = load i32, ptr %16, align 4
  %81 = add i32 %80, 1
  store i32 %81, ptr %16, align 4
  %82 = load ptr, ptr %13, align 8
  %83 = icmp ne ptr %82, null
  br i1 %83, label %84, label %98

84:                                               ; preds = %74
  %85 = load ptr, ptr %13, align 8
  %86 = load i32, ptr %14, align 4
  %87 = sext i32 %86 to i64
  %88 = load ptr, ptr %13, align 8
  %89 = call i64 @llvm.objectsize.i64.p0(ptr %88, i1 false, i1 true, i1 true)
  %90 = load i8, ptr %15, align 1
  %91 = zext i8 %90 to i32
  %92 = and i32 %91, 127
  %93 = load i8, ptr %15, align 1
  %94 = zext i8 %93 to i32
  %95 = and i32 %94, 127
  %96 = call ptr @rval_to_str_const(i32 noundef %95, ptr noundef @gsm_a_bssap_cause_rvals, ptr noundef @.str.95)
  %97 = call i32 (ptr, i64, i32, i64, ptr, ...) @__snprintf_chk(ptr noundef %85, i64 noundef %87, i32 noundef 2, i64 noundef %89, ptr noundef @.str.94, i32 noundef %92, ptr noundef %96)
  br label %98

98:                                               ; preds = %84, %74
  br label %99

99:                                               ; preds = %98, %73
  %100 = load i32, ptr %12, align 4
  %101 = load i32, ptr %16, align 4
  %102 = load i32, ptr %11, align 4
  %103 = sub i32 %101, %102
  %104 = icmp ugt i32 %100, %103
  br i1 %104, label %105, label %123

105:                                              ; preds = %99
  %106 = load ptr, ptr %9, align 8
  %107 = load ptr, ptr %10, align 8
  %108 = load ptr, ptr %8, align 8
  %109 = load i32, ptr %16, align 4
  %110 = load i32, ptr %12, align 4
  %111 = load i32, ptr %16, align 4
  %112 = load i32, ptr %11, align 4
  %113 = sub i32 %111, %112
  %114 = sub i32 %110, %113
  %115 = call ptr @proto_tree_add_expert(ptr noundef %106, ptr noundef %107, ptr noundef @ei_gsm_a_bssmap_extraneous_data, ptr noundef %108, i32 noundef %109, i32 noundef %114)
  %116 = load i32, ptr %12, align 4
  %117 = load i32, ptr %16, align 4
  %118 = load i32, ptr %11, align 4
  %119 = sub i32 %117, %118
  %120 = sub i32 %116, %119
  %121 = load i32, ptr %16, align 4
  %122 = add i32 %121, %120
  store i32 %122, ptr %16, align 4
  br label %123

123:                                              ; preds = %105, %99
  %124 = load i32, ptr %16, align 4
  %125 = load i32, ptr %11, align 4
  %126 = sub i32 %124, %125
  %127 = trunc i32 %126 to i16
  call void @llvm.lifetime.end.p0(i64 4, ptr %16) #5
  call void @llvm.lifetime.end.p0(i64 1, ptr %15) #5
  ret i16 %127
}