; Function Attrs: null_pointer_is_valid sspstrong uwtable
define hidden zeroext i16 @bssmap_dissect_cause(ptr noundef %0, ptr noundef %1, ptr noundef %2, i32 noundef %3, i32 noundef %4, ptr noundef %5, i32 noundef %6) #1 {
  %8 = tail call zeroext i8 @tvb_get_uint8(ptr noundef %0, i32 noundef %3)
  %9 = load i32, ptr @hf_gsm_a_bssmap_cause_extension, align 4
  %10 = tail call ptr @proto_tree_add_item(ptr noundef %1, i32 noundef %9, ptr noundef %0, i32 noundef %3, i32 noundef 1, i32 noundef 0)
  %11 = zext i8 %8 to i32
  %.not = icmp sgt i8 %8, -1
  br i1 %.not, label %31, label %12

12:                                               ; preds = %7
  %13 = and i32 %11, 15
  %14 = icmp eq i32 %13, 0
  br i1 %14, label %15, label %27

15:                                               ; preds = %12
  %16 = load i32, ptr @hf_gsm_a_bssmap_cause_class, align 4
  %17 = tail call ptr @proto_tree_add_item(ptr noundef %1, i32 noundef %16, ptr noundef %0, i32 noundef %3, i32 noundef 1, i32 noundef 0)
  %18 = load i32, ptr @hf_gsm_a_bssmap_national_cause, align 4
  %19 = tail call ptr @proto_tree_add_item(ptr noundef %1, i32 noundef %18, ptr noundef %0, i32 noundef %3, i32 noundef 1, i32 noundef 0)
  %20 = add i32 %3, 1
  %21 = load i32, ptr @hf_gsm_a_bssmap_cause_value, align 4
  %22 = tail call ptr @proto_tree_add_item(ptr noundef %1, i32 noundef %21, ptr noundef %0, i32 noundef %20, i32 noundef 1, i32 noundef 0)
  %23 = add i32 %3, 2
  %.not57 = icmp eq ptr %5, null
  br i1 %.not57, label %39, label %24

24:                                               ; preds = %15
  %25 = sext i32 %6 to i64
  %26 = tail call i32 (ptr, i64, i32, i64, ptr, ...) @__snprintf_chk(ptr noundef nonnull %5, i64 noundef %25, i32 noundef 2, i64 noundef -1, ptr noundef nonnull @.str.93)
  br label %39

27:                                               ; preds = %12
  %28 = load i32, ptr @hf_gsm_a_bssmap_cause16, align 4
  %29 = tail call ptr @proto_tree_add_item(ptr noundef %1, i32 noundef %28, ptr noundef %0, i32 noundef %3, i32 noundef 2, i32 noundef 0)
  %30 = add i32 %3, 2
  br label %39

31:                                               ; preds = %7
  %32 = load i32, ptr @hf_gsm_a_bssmap_cause, align 4
  %33 = tail call ptr @proto_tree_add_item(ptr noundef %1, i32 noundef %32, ptr noundef %0, i32 noundef %3, i32 noundef 1, i32 noundef 0)
  %34 = add i32 %3, 1
  %.not56 = icmp eq ptr %5, null
  br i1 %.not56, label %39, label %35

35:                                               ; preds = %31
  %36 = sext i32 %6 to i64
  %37 = tail call ptr @rval_to_str_const(i32 noundef %11, ptr noundef nonnull @gsm_a_bssap_cause_rvals, ptr noundef nonnull @.str.95)
  %38 = tail call i32 (ptr, i64, i32, i64, ptr, ...) @__snprintf_chk(ptr noundef nonnull %5, i64 noundef %36, i32 noundef 2, i64 noundef -1, ptr noundef nonnull @.str.94, i32 noundef %11, ptr noundef %37)
  br label %39

39:                                               ; preds = %31, %35, %27, %24, %15
  %.0 = phi i32 [ %23, %24 ], [ %23, %15 ], [ %30, %27 ], [ %34, %35 ], [ %34, %31 ]
  %40 = sub i32 %.0, %3
  %41 = icmp ugt i32 %4, %40
  br i1 %41, label %42, label %46

42:                                               ; preds = %39
  %43 = sub nuw i32 %4, %40
  %44 = tail call ptr @proto_tree_add_expert(ptr noundef %1, ptr noundef %2, ptr noundef nonnull @ei_gsm_a_bssmap_extraneous_data, ptr noundef %0, i32 noundef %.0, i32 noundef %43)
  %45 = add i32 %43, %.0
  %.pre = sub i32 %45, %3
  br label %46

46:                                               ; preds = %42, %39
  %.pre-phi = phi i32 [ %.pre, %42 ], [ %40, %39 ]
  %47 = trunc i32 %.pre-phi to i16
  ret i16 %47
}